target datalayout = "e-m:e-p270:32:32-p271:32:32-p272:64:64-i64:64-i128:128-f80:128-n8:16:32:64-S128"
target triple = "x86_64-pc-linux-gnu"

%struct.buftag = type { i32, i32, i32, i32, i32 }
%struct.RelFileLocator = type { i32, i32, i32 }
%struct.LWLock = type { i16, %struct.pg_atomic_uint32, %struct.proclist_head }
%struct.pg_atomic_uint32 = type { i32 }
%struct.proclist_head = type { i32, i32 }
%struct.BufferDesc = type { %struct.buftag, i32, %struct.pg_atomic_uint32, i32, i32, %struct.LWLock }
%union.BufferDescPadded = type { %struct.BufferDesc, [12 x i8] }
%union.PGIOAlignedBlock = type { double, [8184 x i8] }
%struct.BlockRangeReadStreamPrivate = type { i32, i32 }

@.str.3 = private unnamed_addr constant [9 x i8] c"bufmgr.c\00", align 1
@LocalBufferBlockPointers = external global ptr, align 8
@BufferBlocks = external global ptr, align 8
@.str.9 = private unnamed_addr constant [34 x i8] c"unrecognized buffer lock mode: %d\00", align 1
@__func__.LockBuffer = private unnamed_addr constant [11 x i8] c"LockBuffer\00", align 1
@LocalBufferDescriptors = external global ptr, align 8
@BufferDescriptors = external global ptr, align 8
@wal_level = external global i32, align 4
@InterruptPending = external global i32, align 4
@CritSectionCount = external global i32, align 4

; Function Attrs: inlinehint nounwind uwtable
define internal ptr @GetLocalBufferDescriptor(i32 noundef %0) #3 {
  %2 = alloca i32, align 4
  store i32 %0, ptr %2, align 4
  %3 = load ptr, ptr @LocalBufferDescriptors, align 8
  %4 = load i32, ptr %2, align 4
  %5 = zext i32 %4 to i64
  %6 = getelementptr inbounds nuw %struct.BufferDesc, ptr %3, i64 %5
  ret ptr %6
}

; Function Attrs: inlinehint nounwind uwtable
define internal ptr @BufferGetBlock(i32 noundef %0) #3 {
  %2 = alloca ptr, align 8
  %3 = alloca i32, align 4
  store i32 %0, ptr %3, align 4
  %4 = load i32, ptr %3, align 4
  %5 = icmp slt i32 %4, 0
  br i1 %5, label %6, label %14

6:                                                ; preds = %1
  %7 = load ptr, ptr @LocalBufferBlockPointers, align 8
  %8 = load i32, ptr %3, align 4
  %9 = sub i32 0, %8
  %10 = sub i32 %9, 1
  %11 = sext i32 %10 to i64
  %12 = getelementptr inbounds ptr, ptr %7, i64 %11
  %13 = load ptr, ptr %12, align 8
  store ptr %13, ptr %2, align 8
  br label %21

14:                                               ; preds = %1
  %15 = load ptr, ptr @BufferBlocks, align 8
  %16 = load i32, ptr %3, align 4
  %17 = sub i32 %16, 1
  %18 = sext i32 %17 to i64
  %19 = mul i64 %18, 8192
  %20 = getelementptr inbounds nuw i8, ptr %15, i64 %19
  store ptr %20, ptr %2, align 8
  br label %21

21:                                               ; preds = %14, %6
  %22 = load ptr, ptr %2, align 8
  ret ptr %22
}

; Function Attrs: inlinehint nounwind uwtable
define internal ptr @BufferDescriptorGetContentLock(ptr noundef %0) #3 {
  %2 = alloca ptr, align 8
  store ptr %0, ptr %2, align 8
  %3 = load ptr, ptr %2, align 8
  %4 = getelementptr inbounds nuw %struct.BufferDesc, ptr %3, i32 0, i32 5
  ret ptr %4
}

; Function Attrs: inlinehint nounwind uwtable
define internal ptr @GetBufferDescriptor(i32 noundef %0) #3 {
  %2 = alloca i32, align 4
  store i32 %0, ptr %2, align 4
  %3 = load ptr, ptr @BufferDescriptors, align 8
  %4 = load i32, ptr %2, align 4
  %5 = zext i32 %4 to i64
  %6 = getelementptr inbounds nuw %union.BufferDescPadded, ptr %3, i64 %5
  ret ptr %6
}

; Function Attrs: nounwind uwtable
define dso_local void @UnlockReleaseBuffer(i32 noundef %0) #0 {
  %2 = alloca i32, align 4
  store i32 %0, ptr %2, align 4
  %3 = load i32, ptr %2, align 4
  call void @LockBuffer(i32 noundef %3, i32 noundef 0)
  %4 = load i32, ptr %2, align 4
  call void @ReleaseBuffer(i32 noundef %4)
  ret void
}

; Function Attrs: nounwind uwtable
define dso_local i32 @BufferGetBlockNumber(i32 noundef %0) #0 {
  %2 = alloca i32, align 4
  %3 = alloca ptr, align 8
  store i32 %0, ptr %2, align 4
  call void @llvm.lifetime.start.p0(i64 8, ptr %3) #10
  %4 = load i32, ptr %2, align 4
  %5 = icmp slt i32 %4, 0
  br i1 %5, label %6, label %11

6:                                                ; preds = %1
  %7 = load i32, ptr %2, align 4
  %8 = sub i32 0, %7
  %9 = sub i32 %8, 1
  %10 = call ptr @GetLocalBufferDescriptor(i32 noundef %9)
  store ptr %10, ptr %3, align 8
  br label %15

11:                                               ; preds = %1
  %12 = load i32, ptr %2, align 4
  %13 = sub i32 %12, 1
  %14 = call ptr @GetBufferDescriptor(i32 noundef %13)
  store ptr %14, ptr %3, align 8
  br label %15

15:                                               ; preds = %11, %6
  %16 = load ptr, ptr %3, align 8
  %17 = getelementptr inbounds nuw %struct.BufferDesc, ptr %16, i32 0, i32 0
  %18 = getelementptr inbounds nuw %struct.buftag, ptr %17, i32 0, i32 4
  %19 = load i32, ptr %18, align 4
  call void @llvm.lifetime.end.p0(i64 8, ptr %3) #10
  ret i32 %19
}

; Function Attrs: inlinehint nounwind uwtable
define internal ptr @BufferGetPage(i32 noundef %0) #3 {
  %2 = alloca i32, align 4
  store i32 %0, ptr %2, align 4
  %3 = load i32, ptr %2, align 4
  %4 = call ptr @BufferGetBlock(i32 noundef %3)
  ret ptr %4
}

; Function Attrs: nounwind uwtable
define dso_local void @LockBuffer(i32 noundef %0, i32 noundef %1) #0 {
  %3 = alloca i32, align 4
  %4 = alloca i32, align 4
  %5 = alloca ptr, align 8
  %6 = alloca i32, align 4
  store i32 %0, ptr %3, align 4
  store i32 %1, ptr %4, align 4
  call void @llvm.lifetime.start.p0(i64 8, ptr %5) #10
  %7 = load i32, ptr %3, align 4
  %8 = icmp slt i32 %7, 0
  br i1 %8, label %9, label %10

9:                                                ; preds = %2
  store i32 1, ptr %6, align 4
  br label %48

10:                                               ; preds = %2
  %11 = load i32, ptr %3, align 4
  %12 = sub i32 %11, 1
  %13 = call ptr @GetBufferDescriptor(i32 noundef %12)
  store ptr %13, ptr %5, align 8
  %14 = load i32, ptr %4, align 4
  %15 = icmp eq i32 %14, 0
  br i1 %15, label %16, label %19

16:                                               ; preds = %10
  %17 = load ptr, ptr %5, align 8
  %18 = call ptr @BufferDescriptorGetContentLock(ptr noundef %17)
  call void @LWLockRelease(ptr noundef %18)
  br label %47

19:                                               ; preds = %10
  %20 = load i32, ptr %4, align 4
  %21 = icmp eq i32 %20, 1
  br i1 %21, label %22, label %26

22:                                               ; preds = %19
  %23 = load ptr, ptr %5, align 8
  %24 = call ptr @BufferDescriptorGetContentLock(ptr noundef %23)
  %25 = call zeroext i1 @LWLockAcquire(ptr noundef %24, i32 noundef 1)
  br label %46

26:                                               ; preds = %19
  %27 = load i32, ptr %4, align 4
  %28 = icmp eq i32 %27, 2
  br i1 %28, label %29, label %33

29:                                               ; preds = %26
  %30 = load ptr, ptr %5, align 8
  %31 = call ptr @BufferDescriptorGetContentLock(ptr noundef %30)
  %32 = call zeroext i1 @LWLockAcquire(ptr noundef %31, i32 noundef 0)
  br label %45

33:                                               ; preds = %26
  br label %34

34:                                               ; preds = %33
  br i1 true, label %35, label %37

35:                                               ; preds = %34
  %36 = call zeroext i1 @errstart_cold(i32 noundef 21, ptr noundef null) #11
  br i1 %36, label %39, label %42

37:                                               ; preds = %34
  %38 = call zeroext i1 @errstart(i32 noundef 21, ptr noundef null)
  br i1 %38, label %39, label %42

39:                                               ; preds = %37, %35
  %40 = load i32, ptr %4, align 4
  %41 = call i32 (ptr, ...) @errmsg_internal(ptr noundef @.str.9, i32 noundef %40)
  call void @errfinish(ptr noundef @.str.3, i32 noundef 5114, ptr noundef @__func__.LockBuffer)
  br label %42

42:                                               ; preds = %39, %37, %35
  unreachable

43:                                               ; No predecessors!
  br label %44

44:                                               ; preds = %43
  br label %45

45:                                               ; preds = %44, %29
  br label %46

46:                                               ; preds = %45, %22
  br label %47

47:                                               ; preds = %46, %16
  store i32 0, ptr %6, align 4
  br label %48

48:                                               ; preds = %47, %9
  call void @llvm.lifetime.end.p0(i64 8, ptr %5) #10
  %49 = load i32, ptr %6, align 4
  switch i32 %49, label %51 [
    i32 0, label %50
    i32 1, label %50
  ]

50:                                               ; preds = %48, %48
  ret void

51:                                               ; preds = %48
  unreachable
}

; Function Attrs: nounwind uwtable
define internal void @RelationCopyStorageUsingBuffer(i64 %0, i32 %1, i64 %2, i32 %3, i32 noundef %4, i1 noundef zeroext %5) #0 {
  %7 = alloca %struct.RelFileLocator, align 4
  %8 = alloca { i64, i32 }, align 4
  %9 = alloca %struct.RelFileLocator, align 4
  %10 = alloca { i64, i32 }, align 4
  %11 = alloca i32, align 4
  %12 = alloca i8, align 1
  %13 = alloca i32, align 4
  %14 = alloca i32, align 4
  %15 = alloca ptr, align 8
  %16 = alloca ptr, align 8
  %17 = alloca i8, align 1
  %18 = alloca i32, align 4
  %19 = alloca i32, align 4
  %20 = alloca %union.PGIOAlignedBlock, align 4096
  %21 = alloca ptr, align 8
  %22 = alloca ptr, align 8
  %23 = alloca %struct.BlockRangeReadStreamPrivate, align 4
  %24 = alloca ptr, align 8
  %25 = alloca ptr, align 8
  %26 = alloca { i64, i32 }, align 4
  %27 = alloca i32, align 4
  %28 = alloca { i64, i32 }, align 4
  %29 = alloca { i64, i32 }, align 4
  %30 = alloca { i64, i32 }, align 4
  %31 = getelementptr inbounds nuw { i64, i32 }, ptr %8, i32 0, i32 0
  store i64 %0, ptr %31, align 4
  %32 = getelementptr inbounds nuw { i64, i32 }, ptr %8, i32 0, i32 1
  store i32 %1, ptr %32, align 4
  call void @llvm.memcpy.p0.p0.i64(ptr align 4 %7, ptr align 4 %8, i64 12, i1 false)
  %33 = getelementptr inbounds nuw { i64, i32 }, ptr %10, i32 0, i32 0
  store i64 %2, ptr %33, align 4
  %34 = getelementptr inbounds nuw { i64, i32 }, ptr %10, i32 0, i32 1
  store i32 %3, ptr %34, align 4
  call void @llvm.memcpy.p0.p0.i64(ptr align 4 %9, ptr align 4 %10, i64 12, i1 false)
  store i32 %4, ptr %11, align 4
  %35 = zext i1 %5 to i8
  store i8 %35, ptr %12, align 1
  call void @llvm.lifetime.start.p0(i64 4, ptr %13) #10
  call void @llvm.lifetime.start.p0(i64 4, ptr %14) #10
  call void @llvm.lifetime.start.p0(i64 8, ptr %15) #10
  call void @llvm.lifetime.start.p0(i64 8, ptr %16) #10
  call void @llvm.lifetime.start.p0(i64 1, ptr %17) #10
  call void @llvm.lifetime.start.p0(i64 4, ptr %18) #10
  call void @llvm.lifetime.start.p0(i64 4, ptr %19) #10
  call void @llvm.lifetime.start.p0(i64 8192, ptr %20) #10
  call void @llvm.lifetime.start.p0(i64 8, ptr %21) #10
  call void @llvm.lifetime.start.p0(i64 8, ptr %22) #10
  call void @llvm.lifetime.start.p0(i64 8, ptr %23) #10
  call void @llvm.lifetime.start.p0(i64 8, ptr %24) #10
  call void @llvm.lifetime.start.p0(i64 8, ptr %25) #10
  %36 = load i32, ptr @wal_level, align 4
  %37 = icmp sge i32 %36, 1
  br i1 %37, label %38, label %46

38:                                               ; preds = %6
  %39 = load i8, ptr %12, align 1, !range !4, !noundef !5
  %40 = trunc i8 %39 to i1
  br i1 %40, label %44, label %41

41:                                               ; preds = %38
  %42 = load i32, ptr %11, align 4
  %43 = icmp eq i32 %42, 3
  br label %44

44:                                               ; preds = %41, %38
  %45 = phi i1 [ true, %38 ], [ %43, %41 ]
  br label %46

46:                                               ; preds = %44, %6
  %47 = phi i1 [ false, %6 ], [ %45, %44 ]
  %48 = zext i1 %47 to i8
  store i8 %48, ptr %17, align 1
  call void @llvm.memcpy.p0.p0.i64(ptr align 4 %26, ptr align 4 %7, i64 12, i1 false)
  %49 = getelementptr inbounds nuw { i64, i32 }, ptr %26, i32 0, i32 0
  %50 = load i64, ptr %49, align 4
  %51 = getelementptr inbounds nuw { i64, i32 }, ptr %26, i32 0, i32 1
  %52 = load i32, ptr %51, align 4
  %53 = call ptr @smgropen(i64 %50, i32 %52, i32 noundef -1)
  %54 = load i32, ptr %11, align 4
  %55 = call i32 @smgrnblocks(ptr noundef %53, i32 noundef %54)
  store i32 %55, ptr %18, align 4
  %56 = load i32, ptr %18, align 4
  %57 = icmp eq i32 %56, 0
  br i1 %57, label %58, label %59

58:                                               ; preds = %46
  store i32 1, ptr %27, align 4
  br label %147

59:                                               ; preds = %46
  %60 = getelementptr inbounds [8192 x i8], ptr %20, i64 0, i64 0
  call void @llvm.memset.p0.i64(ptr align 4096 %60, i8 0, i64 8192, i1 false)
  call void @llvm.memcpy.p0.p0.i64(ptr align 4 %28, ptr align 4 %9, i64 12, i1 false)
  %61 = getelementptr inbounds nuw { i64, i32 }, ptr %28, i32 0, i32 0
  %62 = load i64, ptr %61, align 4
  %63 = getelementptr inbounds nuw { i64, i32 }, ptr %28, i32 0, i32 1
  %64 = load i32, ptr %63, align 4
  %65 = call ptr @smgropen(i64 %62, i32 %64, i32 noundef -1)
  %66 = load i32, ptr %11, align 4
  %67 = load i32, ptr %18, align 4
  %68 = sub i32 %67, 1
  %69 = getelementptr inbounds [8192 x i8], ptr %20, i64 0, i64 0
  call void @smgrextend(ptr noundef %65, i32 noundef %66, i32 noundef %68, ptr noundef %69, i1 noundef zeroext true)
  %70 = call ptr @GetAccessStrategy(i32 noundef 1)
  store ptr %70, ptr %21, align 8
  %71 = call ptr @GetAccessStrategy(i32 noundef 2)
  store ptr %71, ptr %22, align 8
  %72 = getelementptr inbounds nuw %struct.BlockRangeReadStreamPrivate, ptr %23, i32 0, i32 0
  store i32 0, ptr %72, align 4
  %73 = load i32, ptr %18, align 4
  %74 = getelementptr inbounds nuw %struct.BlockRangeReadStreamPrivate, ptr %23, i32 0, i32 1
  store i32 %73, ptr %74, align 4
  call void @llvm.memcpy.p0.p0.i64(ptr align 4 %29, ptr align 4 %7, i64 12, i1 false)
  %75 = getelementptr inbounds nuw { i64, i32 }, ptr %29, i32 0, i32 0
  %76 = load i64, ptr %75, align 4
  %77 = getelementptr inbounds nuw { i64, i32 }, ptr %29, i32 0, i32 1
  %78 = load i32, ptr %77, align 4
  %79 = call ptr @smgropen(i64 %76, i32 %78, i32 noundef -1)
  store ptr %79, ptr %25, align 8
  %80 = load ptr, ptr %21, align 8
  %81 = load ptr, ptr %25, align 8
  %82 = load i8, ptr %12, align 1, !range !4, !noundef !5
  %83 = trunc i8 %82 to i1
  %84 = select i1 %83, i32 112, i32 117
  %85 = trunc i32 %84 to i8
  %86 = load i32, ptr %11, align 4
  %87 = call ptr @read_stream_begin_smgr_relation(i32 noundef 4, ptr noundef %80, ptr noundef %81, i8 noundef signext %85, i32 noundef %86, ptr noundef @block_range_read_stream_cb, ptr noundef %23, i64 noundef 0)
  store ptr %87, ptr %24, align 8
  store i32 0, ptr %19, align 4
  br label %88

88:                                               ; preds = %140, %59
  %89 = load i32, ptr %19, align 4
  %90 = load i32, ptr %18, align 4
  %91 = icmp ult i32 %89, %90
  br i1 %91, label %92, label %143

92:                                               ; preds = %88
  br label %93

93:                                               ; preds = %92
  %94 = load volatile i32, ptr @InterruptPending, align 4
  %95 = icmp ne i32 %94, 0
  %96 = zext i1 %95 to i32
  %97 = sext i32 %96 to i64
  %98 = call i64 @llvm.expect.i64(i64 %97, i64 0)
  %99 = icmp ne i64 %98, 0
  br i1 %99, label %100, label %101

100:                                              ; preds = %93
  call void @ProcessInterrupts()
  br label %101

101:                                              ; preds = %100, %93
  br label %102

102:                                              ; preds = %101
  br label %103

103:                                              ; preds = %102
  %104 = load ptr, ptr %24, align 8
  %105 = call i32 @read_stream_next_buffer(ptr noundef %104, ptr noundef null)
  store i32 %105, ptr %13, align 4
  %106 = load i32, ptr %13, align 4
  call void @LockBuffer(i32 noundef %106, i32 noundef 1)
  %107 = load i32, ptr %13, align 4
  %108 = call ptr @BufferGetPage(i32 noundef %107)
  store ptr %108, ptr %15, align 8
  %109 = load i32, ptr %11, align 4
  %110 = load i32, ptr %13, align 4
  %111 = call i32 @BufferGetBlockNumber(i32 noundef %110)
  %112 = load ptr, ptr %22, align 8
  %113 = load i8, ptr %12, align 1, !range !4, !noundef !5
  %114 = trunc i8 %113 to i1
  call void @llvm.memcpy.p0.p0.i64(ptr align 4 %30, ptr align 4 %9, i64 12, i1 false)
  %115 = getelementptr inbounds nuw { i64, i32 }, ptr %30, i32 0, i32 0
  %116 = load i64, ptr %115, align 4
  %117 = getelementptr inbounds nuw { i64, i32 }, ptr %30, i32 0, i32 1
  %118 = load i32, ptr %117, align 4
  %119 = call i32 @ReadBufferWithoutRelcache(i64 %116, i32 %118, i32 noundef %109, i32 noundef %111, i32 noundef 1, ptr noundef %112, i1 noundef zeroext %114)
  store i32 %119, ptr %14, align 4
  %120 = load i32, ptr %14, align 4
  %121 = call ptr @BufferGetPage(i32 noundef %120)
  store ptr %121, ptr %16, align 8
  %122 = load volatile i32, ptr @CritSectionCount, align 4
  %123 = add i32 %122, 1
  store volatile i32 %123, ptr @CritSectionCount, align 4
  %124 = load ptr, ptr %16, align 8
  %125 = load ptr, ptr %15, align 8
  call void @llvm.memcpy.p0.p0.i64(ptr align 1 %124, ptr align 1 %125, i64 8192, i1 false)
  %126 = load i32, ptr %14, align 4
  call void @MarkBufferDirty(i32 noundef %126)
  %127 = load i8, ptr %17, align 1, !range !4, !noundef !5
  %128 = trunc i8 %127 to i1
  br i1 %128, label %129, label %132

129:                                              ; preds = %103
  %130 = load i32, ptr %14, align 4
  %131 = call i64 @log_newpage_buffer(i32 noundef %130, i1 noundef zeroext true)
  br label %132

132:                                              ; preds = %129, %103
  br label %133

133:                                              ; preds = %132
  %134 = load volatile i32, ptr @CritSectionCount, align 4
  %135 = add i32 %134, -1
  store volatile i32 %135, ptr @CritSectionCount, align 4
  br label %136

136:                                              ; preds = %133
  br label %137

137:                                              ; preds = %136
  %138 = load i32, ptr %14, align 4
  call void @UnlockReleaseBuffer(i32 noundef %138)
  %139 = load i32, ptr %13, align 4
  call void @UnlockReleaseBuffer(i32 noundef %139)
  br label %140

140:                                              ; preds = %137
  %141 = load i32, ptr %19, align 4
  %142 = add i32 %141, 1
  store i32 %142, ptr %19, align 4
  br label %88, !llvm.loop !43

143:                                              ; preds = %88
  %144 = load ptr, ptr %24, align 8
  call void @read_stream_end(ptr noundef %144)
  %145 = load ptr, ptr %21, align 8
  call void @FreeAccessStrategy(ptr noundef %145)
  %146 = load ptr, ptr %22, align 8
  call void @FreeAccessStrategy(ptr noundef %146)
  store i32 0, ptr %27, align 4
  br label %147

147:                                              ; preds = %143, %58
  call void @llvm.lifetime.end.p0(i64 8, ptr %25) #10
  call void @llvm.lifetime.end.p0(i64 8, ptr %24) #10
  call void @llvm.lifetime.end.p0(i64 8, ptr %23) #10
  call void @llvm.lifetime.end.p0(i64 8, ptr %22) #10
  call void @llvm.lifetime.end.p0(i64 8, ptr %21) #10
  call void @llvm.lifetime.end.p0(i64 8192, ptr %20) #10
  call void @llvm.lifetime.end.p0(i64 4, ptr %19) #10
  call void @llvm.lifetime.end.p0(i64 4, ptr %18) #10
  call void @llvm.lifetime.end.p0(i64 1, ptr %17) #10
  call void @llvm.lifetime.end.p0(i64 8, ptr %16) #10
  call void @llvm.lifetime.end.p0(i64 8, ptr %15) #10
  call void @llvm.lifetime.end.p0(i64 4, ptr %14) #10
  call void @llvm.lifetime.end.p0(i64 4, ptr %13) #10
  %148 = load i32, ptr %27, align 4
  switch i32 %148, label %150 [
    i32 0, label %149
    i32 1, label %149
  ]

149:                                              ; preds = %147, %147
  ret void

150:                                              ; preds = %147
  unreachable
}