; Function Attrs: nounwind uwtable
define internal fastcc void @RelationCopyStorageUsingBuffer(i64 %0, i32 %1, i64 %2, i32 %3, i32 noundef range(i32 -2147483648, 4) %4, i1 noundef zeroext %5) unnamed_addr #0 {
  %7 = alloca %union.PGIOAlignedBlock, align 4096
  %8 = alloca %struct.BlockRangeReadStreamPrivate, align 4
  call void @llvm.lifetime.start.p0(i64 8192, ptr nonnull %7) #16
  call void @llvm.lifetime.start.p0(i64 8, ptr nonnull %8) #16
  %9 = load i32, ptr @wal_level, align 4
  %10 = icmp sgt i32 %9, 0
  br i1 %10, label %11, label %14

11:                                               ; preds = %6
  %12 = icmp eq i32 %4, 3
  %13 = or i1 %5, %12
  br label %14

14:                                               ; preds = %11, %6
  %15 = phi i1 [ false, %6 ], [ %13, %11 ]
  %16 = tail call ptr @smgropen(i64 %0, i32 %1, i32 noundef -1) #16
  %17 = tail call i32 @smgrnblocks(ptr noundef %16, i32 noundef %4) #16
  %18 = icmp eq i32 %17, 0
  br i1 %18, label %89, label %19

19:                                               ; preds = %14
  call void @llvm.memset.p0.i64(ptr noundef nonnull align 4096 dereferenceable(8192) %7, i8 0, i64 8192, i1 false)
  %20 = tail call ptr @smgropen(i64 %2, i32 %3, i32 noundef -1) #16
  %21 = add i32 %17, -1
  call void @smgrextend(ptr noundef %20, i32 noundef %4, i32 noundef %21, ptr noundef nonnull %7, i1 noundef zeroext true) #16
  %22 = call ptr @GetAccessStrategy(i32 noundef 1) #16
  %23 = call ptr @GetAccessStrategy(i32 noundef 2) #16
  store i32 0, ptr %8, align 4
  %24 = getelementptr inbounds nuw i8, ptr %8, i64 4
  store i32 %17, ptr %24, align 4
  %25 = call ptr @smgropen(i64 %0, i32 %1, i32 noundef -1) #16
  %26 = select i1 %5, i8 112, i8 117
  %27 = call ptr @read_stream_begin_smgr_relation(i32 noundef 4, ptr noundef %22, ptr noundef %25, i8 noundef signext %26, i32 noundef %4, ptr noundef nonnull @block_range_read_stream_cb, ptr noundef nonnull %8, i64 noundef 0) #16
  br label %28

28:                                               ; preds = %19, %UnlockReleaseBuffer.exit51
  %.055 = phi i32 [ 0, %19 ], [ %87, %UnlockReleaseBuffer.exit51 ]
  %29 = load volatile i32, ptr @InterruptPending, align 4
  %.not = icmp eq i32 %29, 0
  br i1 %.not, label %31, label %30, !prof !51

30:                                               ; preds = %28
  call void @ProcessInterrupts() #16
  br label %31

31:                                               ; preds = %30, %28
  %32 = call i32 @read_stream_next_buffer(ptr noundef %27, ptr noundef null) #16
  %33 = icmp slt i32 %32, 0
  br i1 %33, label %34, label %42

34:                                               ; preds = %31
  %35 = load ptr, ptr @LocalBufferBlockPointers, align 8
  %36 = xor i32 %32, -1
  %37 = zext nneg i32 %36 to i64
  %38 = getelementptr inbounds nuw ptr, ptr %35, i64 %37
  %39 = load ptr, ptr %38, align 8
  %40 = load ptr, ptr @LocalBufferDescriptors, align 8
  %41 = getelementptr inbounds nuw %struct.BufferDesc, ptr %40, i64 %37
  br label %BufferGetBlockNumber.exit

42:                                               ; preds = %31
  %43 = add nsw i32 %32, -1
  %44 = load ptr, ptr @BufferDescriptors, align 8
  %45 = zext i32 %43 to i64
  %46 = getelementptr inbounds nuw %union.BufferDescPadded, ptr %44, i64 %45, i32 0, i32 5
  %47 = call zeroext i1 @LWLockAcquire(ptr noundef nonnull %46, i32 noundef 1) #16
  %48 = load ptr, ptr @BufferBlocks, align 8
  %49 = sext i32 %43 to i64
  %50 = shl nsw i64 %49, 13
  %51 = getelementptr inbounds nuw i8, ptr %48, i64 %50
  %52 = load ptr, ptr @BufferDescriptors, align 8
  %53 = getelementptr inbounds nuw %union.BufferDescPadded, ptr %52, i64 %45
  br label %BufferGetBlockNumber.exit

BufferGetBlockNumber.exit:                        ; preds = %34, %42
  %.0.i.i53 = phi ptr [ %39, %34 ], [ %51, %42 ]
  %.0.i = phi ptr [ %41, %34 ], [ %53, %42 ]
  %54 = getelementptr inbounds nuw i8, ptr %.0.i, i64 16
  %55 = load i32, ptr %54, align 4
  %56 = call i32 @ReadBufferWithoutRelcache(i64 %2, i32 %3, i32 noundef %4, i32 noundef %55, i32 noundef 1, ptr noundef %23, i1 noundef zeroext %5)
  %57 = icmp slt i32 %56, 0
  br i1 %57, label %58, label %64

58:                                               ; preds = %BufferGetBlockNumber.exit
  %59 = load ptr, ptr @LocalBufferBlockPointers, align 8
  %60 = xor i32 %56, -1
  %61 = zext nneg i32 %60 to i64
  %62 = getelementptr inbounds nuw ptr, ptr %59, i64 %61
  %63 = load ptr, ptr %62, align 8
  br label %BufferGetPage.exit50

64:                                               ; preds = %BufferGetBlockNumber.exit
  %65 = load ptr, ptr @BufferBlocks, align 8
  %66 = add nsw i32 %56, -1
  %67 = sext i32 %66 to i64
  %68 = shl nsw i64 %67, 13
  %69 = getelementptr inbounds nuw i8, ptr %65, i64 %68
  br label %BufferGetPage.exit50

BufferGetPage.exit50:                             ; preds = %58, %64
  %.0.i.i49 = phi ptr [ %63, %58 ], [ %69, %64 ]
  %70 = load volatile i32, ptr @CritSectionCount, align 4
  %71 = add i32 %70, 1
  store volatile i32 %71, ptr @CritSectionCount, align 4
  call void @llvm.memcpy.p0.p0.i64(ptr noundef nonnull align 1 dereferenceable(8192) %.0.i.i49, ptr noundef nonnull align 1 dereferenceable(8192) %.0.i.i53, i64 8192, i1 false)
  call void @MarkBufferDirty(i32 noundef %56)
  br i1 %15, label %72, label %74

72:                                               ; preds = %BufferGetPage.exit50
  %73 = call i64 @log_newpage_buffer(i32 noundef %56, i1 noundef zeroext true) #16
  br label %74

74:                                               ; preds = %BufferGetPage.exit50, %72
  %75 = load volatile i32, ptr @CritSectionCount, align 4
  %76 = add i32 %75, -1
  store volatile i32 %76, ptr @CritSectionCount, align 4
  br i1 %57, label %UnlockReleaseBuffer.exit, label %77

77:                                               ; preds = %74
  %78 = add nsw i32 %56, -1
  %79 = load ptr, ptr @BufferDescriptors, align 8
  %80 = zext i32 %78 to i64
  %81 = getelementptr inbounds nuw %union.BufferDescPadded, ptr %79, i64 %80, i32 0, i32 5
  call void @LWLockRelease(ptr noundef nonnull %81) #16
  br label %UnlockReleaseBuffer.exit

UnlockReleaseBuffer.exit:                         ; preds = %74, %77
  call void @ReleaseBuffer(i32 noundef %56)
  br i1 %33, label %UnlockReleaseBuffer.exit51, label %82

82:                                               ; preds = %UnlockReleaseBuffer.exit
  %83 = add nsw i32 %32, -1
  %84 = load ptr, ptr @BufferDescriptors, align 8
  %85 = zext i32 %83 to i64
  %86 = getelementptr inbounds nuw %union.BufferDescPadded, ptr %84, i64 %85, i32 0, i32 5
  call void @LWLockRelease(ptr noundef nonnull %86) #16
  br label %UnlockReleaseBuffer.exit51

UnlockReleaseBuffer.exit51:                       ; preds = %UnlockReleaseBuffer.exit, %82
  call void @ReleaseBuffer(i32 noundef %32)
  %87 = add nuw i32 %.055, 1
  %exitcond.not = icmp eq i32 %87, %17
  br i1 %exitcond.not, label %88, label %28, !llvm.loop !52

88:                                               ; preds = %UnlockReleaseBuffer.exit51
  call void @read_stream_end(ptr noundef %27) #16
  call void @FreeAccessStrategy(ptr noundef %22) #16
  call void @FreeAccessStrategy(ptr noundef %23) #16
  br label %89

89:                                               ; preds = %14, %88
  call void @llvm.lifetime.end.p0(i64 8, ptr nonnull %8) #16
  call void @llvm.lifetime.end.p0(i64 8192, ptr nonnull %7) #16
  ret void
}